target datalayout = "e-m:e-p270:32:32-p271:32:32-p272:64:64-i64:64-i128:128-f80:128-n8:16:32:64-S128"
target triple = "x86_64-pc-linux-gnu"

@wtap_encap = internal constant [14 x i32] [i32 -1, i32 1, i32 2, i32 -1, i32 -1, i32 3, i32 3, i32 -1, i32 -1, i32 -1, i32 -1, i32 -1, i32 -1, i32 4], align 16

; Function Attrs: nounwind null_pointer_is_valid sspstrong uwtable
define internal i32 @netmon_dump_can_write_encap_2_x(i32 noundef %0) #12 {
  %2 = alloca i32, align 4
  %3 = alloca i32, align 4
  store i32 %0, ptr %3, align 4
  %4 = load i32, ptr %3, align 4
  %5 = icmp eq i32 %4, -1
  br i1 %5, label %6, label %7

6:                                                ; preds = %1
  store i32 0, ptr %2, align 4
  br label %22

7:                                                ; preds = %1
  %8 = load i32, ptr %3, align 4
  %9 = icmp slt i32 %8, 0
  br i1 %9, label %20, label %10

10:                                               ; preds = %7
  %11 = load i32, ptr %3, align 4
  %12 = zext i32 %11 to i64
  %13 = icmp uge i64 %12, 14
  br i1 %13, label %20, label %14

14:                                               ; preds = %10
  %15 = load i32, ptr %3, align 4
  %16 = sext i32 %15 to i64
  %17 = getelementptr [14 x i32], ptr @wtap_encap, i64 0, i64 %16
  %18 = load i32, ptr %17, align 4
  %19 = icmp eq i32 %18, -1
  br i1 %19, label %20, label %21

20:                                               ; preds = %14, %10, %7
  store i32 -8, ptr %2, align 4
  br label %22

21:                                               ; preds = %14
  store i32 0, ptr %2, align 4
  br label %22

22:                                               ; preds = %21, %20, %6
  %23 = load i32, ptr %2, align 4
  ret i32 %23
}