; Function Attrs: mustprogress nofree norecurse nosync nounwind null_pointer_is_valid sspstrong willreturn memory(none) uwtable
define internal range(i32 -8, 1) i32 @netmon_dump_can_write_encap_2_x(i32 noundef %0) #6 {
  %2 = icmp eq i32 %0, -1
  br i1 %2, label %9, label %3

3:                                                ; preds = %1
  %4 = icmp ugt i32 %0, 13
  br i1 %4, label %9, label %5

5:                                                ; preds = %3
  %6 = zext nneg i32 %0 to i64
  %7 = shl nuw nsw i64 1, %6
  %8 = and i64 %7, 8089
  %.not = icmp eq i64 %8, 0
  %spec.select = select i1 %.not, i32 0, i32 -8
  br label %9

9:                                                ; preds = %5, %3, %1
  %.0 = phi i32 [ 0, %1 ], [ -8, %3 ], [ %spec.select, %5 ]
  ret i32 %.0
}